target datalayout = "e-m:e-p270:32:32-p271:32:32-p272:64:64-i64:64-i128:128-f80:128-n8:16:32:64-S128"
target triple = "x86_64-pc-linux-gnu"

%struct.MPVEncContext = type { %struct.MpegEncContext, %struct.PutBitContext, i32, i32, ptr, i32, i32, i32, i32, i32, i32, i32, i32, ptr, ptr, %struct.FDCTDSPContext, %struct.MpegvideoEncDSPContext, %struct.PixblockDSPContext, %struct.MotionEstContext, i32, i32, ptr, ptr, ptr, ptr, ptr, ptr, [2 x [2 x [2 x ptr]]], [2 x ptr], [2 x [2 x ptr]], ptr, ptr, ptr, ptr, [3 x i64], i32, i32, i32, i32, i32, ptr, ptr, ptr, ptr, ptr, ptr, ptr, [12 x i32], ptr, ptr, ptr, ptr, ptr, ptr, ptr, ptr, [2 x i32], ptr, i32, i32, i32, i32, i32, i32, i32, i32, i32, i32, ptr, ptr, i32, i32, %struct.PutBitContext, %struct.PutBitContext, i32, i32, i32, i32, ptr, ptr, ptr, [2 x ptr], [2 x ptr], [2 x ptr], [2 x ptr], ptr, i32 }
%struct.MpegEncContext = type { ptr, i32, i32, i32, [12 x i32], i32, %struct.ScanTable, %struct.ScanTable, [64 x i8], [64 x i8], ptr, ptr, i32, i32, i32, i32, i32, i32, i32, i32, i32, i32, i32, i32, i32, i32, i32, i32, i32, i32, i32, i32, i64, i64, ptr, %struct.BufferPoolContext, i32, i32, %union.anon, i32, %struct.MPVWorkPicture, %struct.MPVWorkPicture, %struct.MPVWorkPicture, i32, [3 x i32], ptr, [3 x ptr], ptr, ptr, ptr, ptr, ptr, ptr, [3 x ptr], i32, ptr, ptr, ptr, ptr, %struct.ScratchpadContext, i32, i32, i32, i32, i32, i32, %struct.BlockDSPContext, %struct.H264ChromaContext, %struct.HpelDSPContext, %struct.IDCTDSPContext, %struct.QpelDSPContext, %struct.VideoDSPContext, %struct.H263DSPContext, ptr, [2 x [2 x ptr]], i32, i32, [2 x [4 x [2 x i32]]], [2 x [2 x i32]], [2 x [2 x [2 x i32]]], [2 x [64 x i16]], i32, i32, i32, i32, i32, [6 x i32], [6 x i32], [3 x ptr], ptr, [64 x i16], [64 x i16], [64 x i16], [64 x i16], i32, i32, %struct.GetBitContext, i32, i32, i32, i32, i32, i32, i32, i32, i32, i32, i32, i32, i32, i32, i32, i64, i64, i16, i16, i16, i16, i32, i32, i32, i32, i32, i32, i32, i32, i32, [3 x i32], i32, i32, i32, i32, i32, i32, %struct.GetBitContext, i32, [2 x [2 x i32]], i32, i32, i32, i32, i32, i32, i32, i32, i32, i32, i32, i32, i32, i32, [2 x i32], i32, i32, ptr, ptr, ptr, ptr, ptr, i32, i32, %struct.ERContext }
%struct.ScanTable = type { ptr, [64 x i8], [64 x i8] }
%struct.BufferPoolContext = type { ptr, ptr, ptr, ptr, ptr, i32, i32, i32 }
%union.anon = type { [32 x ptr] }
%struct.MPVWorkPicture = type { [3 x ptr], [3 x i64], ptr, ptr, [2 x ptr], ptr, ptr, [2 x ptr], i32 }
%struct.ScratchpadContext = type { ptr, ptr, %union.anon.0, i32 }
%union.anon.0 = type { ptr }
%struct.BlockDSPContext = type { ptr, ptr, [2 x ptr] }
%struct.H264ChromaContext = type { [4 x ptr], [4 x ptr] }
%struct.HpelDSPContext = type { [4 x [4 x ptr]], [4 x [4 x ptr]], [4 x [4 x ptr]], [4 x ptr] }
%struct.IDCTDSPContext = type { ptr, ptr, ptr, ptr, ptr, ptr, [64 x i8], i32, i32 }
%struct.QpelDSPContext = type { [2 x [16 x ptr]], [2 x [16 x ptr]], [2 x [16 x ptr]] }
%struct.VideoDSPContext = type { ptr, ptr }
%struct.H263DSPContext = type { ptr, ptr }
%struct.GetBitContext = type { ptr, ptr, i32, i32, i32 }
%struct.ERContext = type { ptr, ptr, i32, ptr, i32, i32, i32, i64, i64, i32, i32, ptr, ptr, [3 x ptr], ptr, ptr, [2 x [4 x [2 x i32]]], %struct.ERPicture, %struct.ERPicture, %struct.ERPicture, [2 x ptr], [2 x ptr], i16, i16, i32, i32, ptr, ptr }
%struct.ERPicture = type { ptr, ptr, ptr, [2 x ptr], [2 x ptr], ptr, i32 }
%struct.FDCTDSPContext = type { ptr, ptr }
%struct.MpegvideoEncDSPContext = type { ptr, ptr, ptr, ptr, [4 x ptr], ptr }
%struct.PixblockDSPContext = type { ptr, ptr, ptr, ptr }
%struct.MotionEstContext = type { ptr, i32, i32, [4 x [2 x i32]], [4 x [2 x i32]], ptr, ptr, i32, i32, i32, i32, i32, i32, i32, i32, i32, i32, i32, i32, i32, i32, i32, i32, [4 x [4 x ptr]], [4 x [4 x ptr]], i32, i32, i64, i64, i32, [6 x ptr], [6 x ptr], [6 x ptr], [6 x ptr], [2 x [4 x ptr]], ptr, ptr, ptr, ptr, ptr, ptr, ptr, ptr, [64 x i32], [64 x i32] }
%struct.PutBitContext = type { i32, i32, ptr, ptr, ptr }

; Function Attrs: nounwind uwtable
define internal i32 @quant_psnr8x8_c(ptr noundef %0, ptr noundef %1, ptr noundef %2, i64 noundef %3, i32 noundef %4) #2 {
  %6 = alloca ptr, align 8
  %7 = alloca ptr, align 8
  %8 = alloca ptr, align 8
  %9 = alloca i64, align 8
  %10 = alloca i32, align 4
  %11 = alloca [128 x i16], align 16
  %12 = alloca ptr, align 8
  %13 = alloca ptr, align 8
  %14 = alloca i32, align 4
  %15 = alloca i32, align 4
  store ptr %0, ptr %6, align 8, !tbaa !22
  store ptr %1, ptr %7, align 8, !tbaa !24
  store ptr %2, ptr %8, align 8, !tbaa !24
  store i64 %3, ptr %9, align 8, !tbaa !26
  store i32 %4, ptr %10, align 4, !tbaa !11
  call void @llvm.lifetime.start.p0(i64 256, ptr %11) #9
  call void @llvm.lifetime.start.p0(i64 8, ptr %12) #9
  %16 = getelementptr inbounds [128 x i16], ptr %11, i64 0, i64 0
  store ptr %16, ptr %12, align 8, !tbaa !32
  call void @llvm.lifetime.start.p0(i64 8, ptr %13) #9
  %17 = load ptr, ptr %12, align 8, !tbaa !32
  %18 = getelementptr inbounds i16, ptr %17, i64 64
  store ptr %18, ptr %13, align 8, !tbaa !32
  call void @llvm.lifetime.start.p0(i64 4, ptr %14) #9
  store i32 0, ptr %14, align 4, !tbaa !11
  call void @llvm.lifetime.start.p0(i64 4, ptr %15) #9
  %19 = load ptr, ptr %6, align 8, !tbaa !22
  %20 = getelementptr inbounds nuw %struct.MPVEncContext, ptr %19, i32 0, i32 0
  %21 = getelementptr inbounds nuw %struct.MpegEncContext, ptr %20, i32 0, i32 85
  store i32 0, ptr %21, align 8, !tbaa !87
  %22 = load ptr, ptr %6, align 8, !tbaa !22
  %23 = getelementptr inbounds nuw %struct.MPVEncContext, ptr %22, i32 0, i32 17
  %24 = getelementptr inbounds nuw %struct.PixblockDSPContext, ptr %23, i32 0, i32 3
  %25 = load ptr, ptr %24, align 8, !tbaa !49
  %26 = load ptr, ptr %12, align 8, !tbaa !32
  %27 = load ptr, ptr %7, align 8, !tbaa !24
  %28 = load ptr, ptr %8, align 8, !tbaa !24
  %29 = load i64, ptr %9, align 8, !tbaa !26
  call void %25(ptr noundef %26, ptr noundef %27, ptr noundef %28, i64 noundef %29)
  %30 = load ptr, ptr %13, align 8, !tbaa !32
  %31 = load ptr, ptr %12, align 8, !tbaa !32
  call void @llvm.memcpy.p0.p0.i64(ptr align 2 %30, ptr align 2 %31, i64 128, i1 false)
  %32 = load ptr, ptr %6, align 8, !tbaa !22
  %33 = getelementptr inbounds nuw %struct.MPVEncContext, ptr %32, i32 0, i32 80
  %34 = load ptr, ptr %33, align 8, !tbaa !88
  %35 = load ptr, ptr %6, align 8, !tbaa !22
  %36 = load ptr, ptr %12, align 8, !tbaa !32
  %37 = load ptr, ptr %6, align 8, !tbaa !22
  %38 = getelementptr inbounds nuw %struct.MPVEncContext, ptr %37, i32 0, i32 0
  %39 = getelementptr inbounds nuw %struct.MpegEncContext, ptr %38, i32 0, i32 60
  %40 = load i32, ptr %39, align 8, !tbaa !89
  %41 = call i32 %34(ptr noundef %35, ptr noundef %36, i32 noundef 0, i32 noundef %40, ptr noundef %15)
  %42 = load ptr, ptr %6, align 8, !tbaa !22
  %43 = getelementptr inbounds nuw %struct.MPVEncContext, ptr %42, i32 0, i32 0
  %44 = getelementptr inbounds nuw %struct.MpegEncContext, ptr %43, i32 0, i32 4
  %45 = getelementptr inbounds [12 x i32], ptr %44, i64 0, i64 0
  store i32 %41, ptr %45, align 4, !tbaa !11
  %46 = load ptr, ptr %6, align 8, !tbaa !22
  %47 = getelementptr inbounds nuw %struct.MPVEncContext, ptr %46, i32 0, i32 0
  %48 = getelementptr inbounds nuw %struct.MpegEncContext, ptr %47, i32 0, i32 158
  %49 = load ptr, ptr %48, align 8, !tbaa !90
  %50 = load ptr, ptr %6, align 8, !tbaa !22
  %51 = getelementptr inbounds nuw %struct.MPVEncContext, ptr %50, i32 0, i32 0
  %52 = load ptr, ptr %12, align 8, !tbaa !32
  %53 = load ptr, ptr %6, align 8, !tbaa !22
  %54 = getelementptr inbounds nuw %struct.MPVEncContext, ptr %53, i32 0, i32 0
  %55 = getelementptr inbounds nuw %struct.MpegEncContext, ptr %54, i32 0, i32 60
  %56 = load i32, ptr %55, align 8, !tbaa !89
  call void %49(ptr noundef %51, ptr noundef %52, i32 noundef 0, i32 noundef %56)
  %57 = load ptr, ptr %12, align 8, !tbaa !32
  call void @ff_simple_idct_int16_8bit(ptr noundef %57)
  store i32 0, ptr %15, align 4, !tbaa !11
  br label %58

58:                                               ; preds = %91, %5
  %59 = load i32, ptr %15, align 4, !tbaa !11
  %60 = icmp slt i32 %59, 64
  br i1 %60, label %61, label %94

61:                                               ; preds = %58
  %62 = load ptr, ptr %12, align 8, !tbaa !32
  %63 = load i32, ptr %15, align 4, !tbaa !11
  %64 = sext i32 %63 to i64
  %65 = getelementptr inbounds i16, ptr %62, i64 %64
  %66 = load i16, ptr %65, align 2, !tbaa !34
  %67 = sext i16 %66 to i32
  %68 = load ptr, ptr %13, align 8, !tbaa !32
  %69 = load i32, ptr %15, align 4, !tbaa !11
  %70 = sext i32 %69 to i64
  %71 = getelementptr inbounds i16, ptr %68, i64 %70
  %72 = load i16, ptr %71, align 2, !tbaa !34
  %73 = sext i16 %72 to i32
  %74 = sub nsw i32 %67, %73
  %75 = load ptr, ptr %12, align 8, !tbaa !32
  %76 = load i32, ptr %15, align 4, !tbaa !11
  %77 = sext i32 %76 to i64
  %78 = getelementptr inbounds i16, ptr %75, i64 %77
  %79 = load i16, ptr %78, align 2, !tbaa !34
  %80 = sext i16 %79 to i32
  %81 = load ptr, ptr %13, align 8, !tbaa !32
  %82 = load i32, ptr %15, align 4, !tbaa !11
  %83 = sext i32 %82 to i64
  %84 = getelementptr inbounds i16, ptr %81, i64 %83
  %85 = load i16, ptr %84, align 2, !tbaa !34
  %86 = sext i16 %85 to i32
  %87 = sub nsw i32 %80, %86
  %88 = mul nsw i32 %74, %87
  %89 = load i32, ptr %14, align 4, !tbaa !11
  %90 = add nsw i32 %89, %88
  store i32 %90, ptr %14, align 4, !tbaa !11
  br label %91

91:                                               ; preds = %61
  %92 = load i32, ptr %15, align 4, !tbaa !11
  %93 = add nsw i32 %92, 1
  store i32 %93, ptr %15, align 4, !tbaa !11
  br label %58, !llvm.loop !91

94:                                               ; preds = %58
  %95 = load i32, ptr %14, align 4, !tbaa !11
  call void @llvm.lifetime.end.p0(i64 4, ptr %15) #9
  call void @llvm.lifetime.end.p0(i64 4, ptr %14) #9
  call void @llvm.lifetime.end.p0(i64 8, ptr %13) #9
  call void @llvm.lifetime.end.p0(i64 8, ptr %12) #9
  call void @llvm.lifetime.end.p0(i64 256, ptr %11) #9
  ret i32 %95
}