; Function Attrs: nounwind uwtable
define internal i32 @quant_psnr8x8_c(ptr noundef initializes((3360, 3364)) %0, ptr noundef %1, ptr noundef %2, i64 noundef %3, i32 %4) #7 {
  %6 = alloca [128 x i16], align 16
  %7 = alloca i32, align 4
  call void @llvm.lifetime.start.p0(i64 256, ptr nonnull %6) #12
  %8 = getelementptr inbounds nuw i8, ptr %6, i64 128
  call void @llvm.lifetime.start.p0(i64 4, ptr nonnull %7) #12
  %9 = getelementptr inbounds nuw i8, ptr %0, i64 3360
  store i32 0, ptr %9, align 8, !tbaa !77
  %10 = getelementptr inbounds nuw i8, ptr %0, i64 5016
  %11 = load ptr, ptr %10, align 8, !tbaa !35
  call void %11(ptr noundef nonnull %6, ptr noundef %1, ptr noundef %2, i64 noundef %3) #12
  call void @llvm.memcpy.p0.p0.i64(ptr noundef nonnull align 16 dereferenceable(128) %8, ptr noundef nonnull align 16 dereferenceable(128) %6, i64 128, i1 false)
  %12 = getelementptr inbounds nuw i8, ptr %0, i64 6896
  %13 = load ptr, ptr %12, align 8, !tbaa !78
  %14 = getelementptr inbounds nuw i8, ptr %0, i64 1472
  %15 = load i32, ptr %14, align 8, !tbaa !79
  %16 = call i32 %13(ptr noundef %0, ptr noundef nonnull %6, i32 noundef 0, i32 noundef %15, ptr noundef nonnull %7) #12
  %17 = getelementptr inbounds nuw i8, ptr %0, i64 20
  store i32 %16, ptr %17, align 4, !tbaa !29
  %18 = getelementptr inbounds nuw i8, ptr %0, i64 4320
  %19 = load ptr, ptr %18, align 8, !tbaa !80
  %20 = load i32, ptr %14, align 8, !tbaa !79
  call void %19(ptr noundef %0, ptr noundef nonnull %6, i32 noundef 0, i32 noundef %20) #12
  call void @ff_simple_idct_int16_8bit(ptr noundef nonnull %6) #12
  br label %21

21:                                               ; preds = %5, %21
  %indvars.iv = phi i64 [ 0, %5 ], [ %indvars.iv.next, %21 ]
  %.026 = phi i32 [ 0, %5 ], [ %30, %21 ]
  %22 = getelementptr inbounds nuw i16, ptr %6, i64 %indvars.iv
  %23 = load i16, ptr %22, align 2, !tbaa !18
  %24 = sext i16 %23 to i32
  %25 = getelementptr inbounds nuw i16, ptr %8, i64 %indvars.iv
  %26 = load i16, ptr %25, align 2, !tbaa !18
  %27 = sext i16 %26 to i32
  %28 = sub nsw i32 %24, %27
  %29 = mul nsw i32 %28, %28
  %30 = add nuw nsw i32 %29, %.026
  %indvars.iv.next = add nuw nsw i64 %indvars.iv, 1
  %exitcond.not = icmp eq i64 %indvars.iv.next, 64
  br i1 %exitcond.not, label %31, label %21, !llvm.loop !81

31:                                               ; preds = %21
  call void @llvm.lifetime.end.p0(i64 4, ptr nonnull %7) #12
  call void @llvm.lifetime.end.p0(i64 256, ptr nonnull %6) #12
  ret i32 %30
}